; Function Attrs: nounwind uwtable
define hidden void @zim_XMLReader_close(ptr nocapture noundef readonly %0, ptr nocapture noundef writeonly %1) #0 {
  %3 = getelementptr inbounds i8, ptr %0, i64 44
  %4 = load i32, ptr %3, align 4
  %.not = icmp eq i32 %4, 0
  br i1 %.not, label %.critedge, label %5

5:                                                ; preds = %2
  tail call void @zend_wrong_parameters_none_error() #11
  %6 = load ptr, ptr getelementptr inbounds (%struct._zend_executor_globals, ptr @executor_globals, i64 0, i32 50), align 8
  %7 = icmp ne ptr %6, null
  tail call void @llvm.assume(i1 %7)
  br label %22

.critedge:                                        ; preds = %2
  %8 = getelementptr inbounds i8, ptr %0, i64 32
  %9 = load ptr, ptr %8, align 8
  %10 = getelementptr inbounds i8, ptr %9, i64 -32
  %11 = getelementptr inbounds i8, ptr %9, i64 -24
  %12 = load ptr, ptr %11, align 8
  %.not.i = icmp eq ptr %12, null
  br i1 %.not.i, label %14, label %13

13:                                               ; preds = %.critedge
  tail call void @xmlFreeParserInputBuffer(ptr noundef nonnull %12) #11
  store ptr null, ptr %11, align 8
  br label %14

14:                                               ; preds = %13, %.critedge
  %15 = load ptr, ptr %10, align 8
  %.not11.i = icmp eq ptr %15, null
  br i1 %.not11.i, label %17, label %16

16:                                               ; preds = %14
  tail call void @xmlFreeTextReader(ptr noundef nonnull %15) #11
  store ptr null, ptr %10, align 8
  br label %17

17:                                               ; preds = %16, %14
  %18 = getelementptr inbounds i8, ptr %9, i64 -16
  %19 = load ptr, ptr %18, align 8
  %.not12.i = icmp eq ptr %19, null
  br i1 %.not12.i, label %xmlreader_free_resources.exit, label %20

20:                                               ; preds = %17
  tail call void @xmlRelaxNGFree(ptr noundef nonnull %19) #11
  store ptr null, ptr %18, align 8
  br label %xmlreader_free_resources.exit

xmlreader_free_resources.exit:                    ; preds = %17, %20
  %21 = getelementptr inbounds i8, ptr %1, i64 8
  store i32 3, ptr %21, align 8
  br label %22

22:                                               ; preds = %xmlreader_free_resources.exit, %5
  ret void
}